VOpenStack
p0
.VSeptember 2016  Present (2 months)
p0
.VLyxel Labs Private Limited
p0
.VNovember 2015  Present (1 year)
p0
.VOpenStack
p0
.VSeptember 2015  Present (1 year 2 months)
p0
.VOpenStack
p0
.VMay 2015  September 2015 (5 months)
p0
.VOutreachy Intern at OpenStack
p0
.VMay 2015  September 2015 (5 months)
p0
.VLearn IT Girl, License 10060142
p0
.VAugust 2015  Present
p0
.VAccredible, License Accredible-10222048
p0
.VMay 2016  Present
p0
.VBachelor of Technology (B.Tech.), Electronics and Communication
p0
.V2011  2015
p0
.V87.2%
p0
.V2009  2011
p0
.V
p0
.VFebruary 2016  Present (9 months)
p0
.